; Function Attrs: mustprogress nofree norecurse nosync nounwind willreturn memory(none) uwtable
define hidden noundef range(i32 -1, 148) i32 @_ZN2cv3dnn13letterToIndexEc(i8 noundef signext %0) local_unnamed_addr #5 {
  %2 = sext i8 %0 to i32
  %3 = add i8 %0, -97
  %or.cond = icmp ult i8 %3, 26
  br i1 %or.cond, label %4, label %6

4:                                                ; preds = %1
  %5 = add nsw i32 %2, -97
  br label %9

6:                                                ; preds = %1
  %7 = add i8 %0, -65
  %or.cond5 = icmp ult i8 %7, 26
  %8 = add nuw nsw i32 %2, 57
  %spec.select = select i1 %or.cond5, i32 %8, i32 -1
  br label %9

9:                                                ; preds = %6, %4
  %.0 = phi i32 [ %5, %4 ], [ %spec.select, %6 ]
  ret i32 %.0
}